; ModuleID = '35/657.c'
source_filename = "35/657.c"
target datalayout = "e-m:e-p270:32:32-p271:32:32-p272:64:64-i64:64-f80:128-n8:16:32:64-S128"
target triple = "x86_64-pc-linux-gnu"

@.str = private unnamed_addr constant [6 x i8] c"%d,%d\00", align 1
@.str.1 = private unnamed_addr constant [3 x i8] c"%d\00", align 1
@.str.2 = private unnamed_addr constant [6 x i8] c"%d+%d\00", align 1
@.str.3 = private unnamed_addr constant [3 x i8] c"No\00", align 1

; Function Attrs: noinline nounwind uwtable
define dso_local i32 @main() #0 {
  %1 = alloca i32, align 4
  %2 = alloca i32, align 4
  %3 = alloca i32, align 4
  %4 = alloca i32, align 4
  %5 = alloca i32, align 4
  %6 = alloca i32, align 4
  %7 = alloca i32, align 4
  %8 = alloca [8 x [8 x i32]], align 16
  %9 = alloca i32, align 4
  %10 = alloca i32, align 4
  %11 = alloca i32, align 4
  %12 = alloca i32, align 4
  store i32 0, i32* %1, align 4
  store i32 0, i32* %7, align 4
  %13 = call i32 (i8*, ...) @__isoc99_scanf(i8* getelementptr inbounds ([6 x i8], [6 x i8]* @.str, i64 0, i64 0), i32* %2, i32* %3)
  store i32 0, i32* %9, align 4
  br label %14

14:                                               ; preds = %37, %0
  %15 = load i32, i32* %9, align 4
  %16 = load i32, i32* %2, align 4
  %17 = sub nsw i32 %16, 1
  %18 = icmp sle i32 %15, %17
  br i1 %18, label %19, label %40

19:                                               ; preds = %14
  store i32 0, i32* %10, align 4
  br label %20

20:                                               ; preds = %33, %19
  %21 = load i32, i32* %10, align 4
  %22 = load i32, i32* %3, align 4
  %23 = sub nsw i32 %22, 1
  %24 = icmp sle i32 %21, %23
  br i1 %24, label %25, label %36

25:                                               ; preds = %20
  %26 = load i32, i32* %9, align 4
  %27 = sext i32 %26 to i64
  %28 = getelementptr inbounds [8 x [8 x i32]], [8 x [8 x i32]]* %8, i64 0, i64 %27
  %29 = load i32, i32* %10, align 4
  %30 = sext i32 %29 to i64
  %31 = getelementptr inbounds [8 x i32], [8 x i32]* %28, i64 0, i64 %30
  %32 = call i32 (i8*, ...) @__isoc99_scanf(i8* getelementptr inbounds ([3 x i8], [3 x i8]* @.str.1, i64 0, i64 0), i32* %31)
  br label %33

33:                                               ; preds = %25
  %34 = load i32, i32* %10, align 4
  %35 = add nsw i32 %34, 1
  store i32 %35, i32* %10, align 4
  br label %20

36:                                               ; preds = %20
  br label %37

37:                                               ; preds = %36
  %38 = load i32, i32* %9, align 4
  %39 = add nsw i32 %38, 1
  store i32 %39, i32* %9, align 4
  br label %14

40:                                               ; preds = %14
  store i32 0, i32* %9, align 4
  br label %41

41:                                               ; preds = %121, %40
  %42 = load i32, i32* %9, align 4
  %43 = load i32, i32* %2, align 4
  %44 = sub nsw i32 %43, 1
  %45 = icmp sle i32 %42, %44
  br i1 %45, label %46, label %124

46:                                               ; preds = %41
  store i32 0, i32* %10, align 4
  br label %47

47:                                               ; preds = %117, %46
  %48 = load i32, i32* %10, align 4
  %49 = load i32, i32* %3, align 4
  %50 = sub nsw i32 %49, 1
  %51 = icmp sle i32 %48, %50
  br i1 %51, label %52, label %120

52:                                               ; preds = %47
  store i32 1, i32* %4, align 4
  store i32 1, i32* %5, align 4
  store i32 0, i32* %11, align 4
  br label %53

53:                                               ; preds = %76, %52
  %54 = load i32, i32* %11, align 4
  %55 = load i32, i32* %2, align 4
  %56 = sub nsw i32 %55, 1
  %57 = icmp sle i32 %54, %56
  br i1 %57, label %58, label %79

58:                                               ; preds = %53
  %59 = load i32, i32* %11, align 4
  %60 = sext i32 %59 to i64
  %61 = getelementptr inbounds [8 x [8 x i32]], [8 x [8 x i32]]* %8, i64 0, i64 %60
  %62 = load i32, i32* %10, align 4
  %63 = sext i32 %62 to i64
  %64 = getelementptr inbounds [8 x i32], [8 x i32]* %61, i64 0, i64 %63
  %65 = load i32, i32* %64, align 4
  %66 = load i32, i32* %9, align 4
  %67 = sext i32 %66 to i64
  %68 = getelementptr inbounds [8 x [8 x i32]], [8 x [8 x i32]]* %8, i64 0, i64 %67
  %69 = load i32, i32* %10, align 4
  %70 = sext i32 %69 to i64
  %71 = getelementptr inbounds [8 x i32], [8 x i32]* %68, i64 0, i64 %70
  %72 = load i32, i32* %71, align 4
  %73 = icmp slt i32 %65, %72
  br i1 %73, label %74, label %75

74:                                               ; preds = %58
  store i32 0, i32* %4, align 4
  br label %75

75:                                               ; preds = %74, %58
  br label %76

76:                                               ; preds = %75
  %77 = load i32, i32* %11, align 4
  %78 = add nsw i32 %77, 1
  store i32 %78, i32* %11, align 4
  br label %53

79:                                               ; preds = %53
  store i32 0, i32* %12, align 4
  br label %80

80:                                               ; preds = %103, %79
  %81 = load i32, i32* %12, align 4
  %82 = load i32, i32* %3, align 4
  %83 = sub nsw i32 %82, 1
  %84 = icmp sle i32 %81, %83
  br i1 %84, label %85, label %106

85:                                               ; preds = %80
  %86 = load i32, i32* %9, align 4
  %87 = sext i32 %86 to i64
  %88 = getelementptr inbounds [8 x [8 x i32]], [8 x [8 x i32]]* %8, i64 0, i64 %87
  %89 = load i32, i32* %12, align 4
  %90 = sext i32 %89 to i64
  %91 = getelementptr inbounds [8 x i32], [8 x i32]* %88, i64 0, i64 %90
  %92 = load i32, i32* %91, align 4
  %93 = load i32, i32* %9, align 4
  %94 = sext i32 %93 to i64
  %95 = getelementptr inbounds [8 x [8 x i32]], [8 x [8 x i32]]* %8, i64 0, i64 %94
  %96 = load i32, i32* %10, align 4
  %97 = sext i32 %96 to i64
  %98 = getelementptr inbounds [8 x i32], [8 x i32]* %95, i64 0, i64 %97
  %99 = load i32, i32* %98, align 4
  %100 = icmp sgt i32 %92, %99
  br i1 %100, label %101, label %102

101:                                              ; preds = %85
  store i32 0, i32* %5, align 4
  br label %102

102:                                              ; preds = %101, %85
  br label %103

103:                                              ; preds = %102
  %104 = load i32, i32* %12, align 4
  %105 = add nsw i32 %104, 1
  store i32 %105, i32* %12, align 4
  br label %80

106:                                              ; preds = %80
  %107 = load i32, i32* %4, align 4
  %108 = load i32, i32* %5, align 4
  %109 = mul nsw i32 %107, %108
  store i32 %109, i32* %6, align 4
  %110 = load i32, i32* %6, align 4
  %111 = icmp eq i32 %110, 1
  br i1 %111, label %112, label %116

112:                                              ; preds = %106
  %113 = load i32, i32* %9, align 4
  %114 = load i32, i32* %10, align 4
  %115 = call i32 (i8*, ...) @printf(i8* getelementptr inbounds ([6 x i8], [6 x i8]* @.str.2, i64 0, i64 0), i32 %113, i32 %114)
  store i32 1, i32* %7, align 4
  br label %116

116:                                              ; preds = %112, %106
  br label %117

117:                                              ; preds = %116
  %118 = load i32, i32* %10, align 4
  %119 = add nsw i32 %118, 1
  store i32 %119, i32* %10, align 4
  br label %47

120:                                              ; preds = %47
  br label %121

121:                                              ; preds = %120
  %122 = load i32, i32* %9, align 4
  %123 = add nsw i32 %122, 1
  store i32 %123, i32* %9, align 4
  br label %41

124:                                              ; preds = %41
  %125 = load i32, i32* %7, align 4
  %126 = icmp eq i32 %125, 0
  br i1 %126, label %127, label %129

127:                                              ; preds = %124
  %128 = call i32 (i8*, ...) @printf(i8* getelementptr inbounds ([3 x i8], [3 x i8]* @.str.3, i64 0, i64 0))
  br label %129

129:                                              ; preds = %127, %124
  ret i32 0
}

declare dso_local i32 @__isoc99_scanf(i8*, ...) #1

declare dso_local i32 @printf(i8*, ...) #1


!llvm.module.flags = !{!0}
!llvm.ident = !{!1}

!0 = !{i32 1, !"wchar_size", i32 4}
!1 = !{!"clang version 10.0.0-4ubuntu1 "}
